target datalayout = "e-m:e-p270:32:32-p271:32:32-p272:64:64-i64:64-i128:128-f80:128-n8:16:32:64-S128"
target triple = "x86_64-pc-linux-gnu"

%"class.pxrInternal_v0_24__pxrReserved__::TfStaticData" = type { %"struct.std::atomic" }
%"struct.std::atomic" = type { %"struct.std::__atomic_base" }
%"struct.std::__atomic_base" = type { ptr }
%"class.pxrInternal_v0_24__pxrReserved__::HdDataSourceLocator" = type { %"class.pxrInternal_v0_24__pxrReserved__::TfSmallVector" }
%"class.pxrInternal_v0_24__pxrReserved__::TfSmallVector" = type { %"union.pxrInternal_v0_24__pxrReserved__::TfSmallVectorBase::_DataUnion", i32, i32 }
%"union.pxrInternal_v0_24__pxrReserved__::TfSmallVectorBase::_DataUnion" = type { ptr, [40 x i8] }
%"struct.pxrInternal_v0_24__pxrReserved__::HdSceneGlobalsSchemaTokens_StaticTokenType" = type { %"class.pxrInternal_v0_24__pxrReserved__::TfToken", %"class.pxrInternal_v0_24__pxrReserved__::TfToken", %"class.pxrInternal_v0_24__pxrReserved__::TfToken", %"class.pxrInternal_v0_24__pxrReserved__::TfToken", %"class.pxrInternal_v0_24__pxrReserved__::TfToken", %"class.pxrInternal_v0_24__pxrReserved__::TfToken", %"class.std::vector" }
%"class.pxrInternal_v0_24__pxrReserved__::TfToken" = type { %"class.pxrInternal_v0_24__pxrReserved__::TfPointerAndBits" }
%"class.pxrInternal_v0_24__pxrReserved__::TfPointerAndBits" = type { ptr }
%"class.std::vector" = type { %"struct.std::_Vector_base" }
%"struct.std::_Vector_base" = type { %"struct.std::_Vector_base<pxrInternal_v0_24__pxrReserved__::TfToken, std::allocator<pxrInternal_v0_24__pxrReserved__::TfToken>>::_Vector_impl" }
%"struct.std::_Vector_base<pxrInternal_v0_24__pxrReserved__::TfToken, std::allocator<pxrInternal_v0_24__pxrReserved__::TfToken>>::_Vector_impl" = type { %"struct.std::_Vector_base<pxrInternal_v0_24__pxrReserved__::TfToken, std::allocator<pxrInternal_v0_24__pxrReserved__::TfToken>>::_Vector_impl_data" }
%"struct.std::_Vector_base<pxrInternal_v0_24__pxrReserved__::TfToken, std::allocator<pxrInternal_v0_24__pxrReserved__::TfToken>>::_Vector_impl_data" = type { ptr, ptr, ptr }

@_ZN32pxrInternal_v0_24__pxrReserved__26HdSceneGlobalsSchemaTokensE = global %"class.pxrInternal_v0_24__pxrReserved__::TfStaticData" zeroinitializer, align 8
@__dso_handle = external hidden global i8
@_ZZN32pxrInternal_v0_24__pxrReserved__20HdSceneGlobalsSchema21GetEndTimeCodeLocatorEvE7locator = internal global %"class.pxrInternal_v0_24__pxrReserved__::HdDataSourceLocator" zeroinitializer, align 8
@_ZGVZN32pxrInternal_v0_24__pxrReserved__20HdSceneGlobalsSchema21GetEndTimeCodeLocatorEvE7locator = internal global i64 0, align 8

; Function Attrs: mustprogress uwtable
define noundef nonnull align 8 dereferenceable(56) ptr @_ZN32pxrInternal_v0_24__pxrReserved__20HdSceneGlobalsSchema21GetEndTimeCodeLocatorEv() #1 align 2 personality ptr @__gxx_personality_v0 {
  %1 = alloca ptr, align 8
  %2 = alloca i32, align 4
  %3 = load atomic i8, ptr @_ZGVZN32pxrInternal_v0_24__pxrReserved__20HdSceneGlobalsSchema21GetEndTimeCodeLocatorEvE7locator acquire, align 8
  %4 = icmp eq i8 %3, 0
  br i1 %4, label %5, label %16, !prof !4

5:                                                ; preds = %0
  %6 = call i32 @__cxa_guard_acquire(ptr @_ZGVZN32pxrInternal_v0_24__pxrReserved__20HdSceneGlobalsSchema21GetEndTimeCodeLocatorEvE7locator) #3
  %7 = icmp ne i32 %6, 0
  br i1 %7, label %8, label %16

8:                                                ; preds = %5
  %9 = invoke noundef nonnull align 8 dereferenceable(56) ptr @_ZN32pxrInternal_v0_24__pxrReserved__20HdSceneGlobalsSchema17GetDefaultLocatorEv()
          to label %10 unwind label %17

10:                                               ; preds = %8
  %11 = invoke noundef ptr @_ZNK32pxrInternal_v0_24__pxrReserved__12TfStaticDataINS_42HdSceneGlobalsSchemaTokens_StaticTokenTypeENS_27Tf_StaticDataDefaultFactoryIS1_EEEptEv(ptr noundef nonnull align 8 dereferenceable(8) @_ZN32pxrInternal_v0_24__pxrReserved__26HdSceneGlobalsSchemaTokensE)
          to label %12 unwind label %17

12:                                               ; preds = %10
  %13 = getelementptr inbounds nuw %"struct.pxrInternal_v0_24__pxrReserved__::HdSceneGlobalsSchemaTokens_StaticTokenType", ptr %11, i32 0, i32 4
  invoke void @_ZNK32pxrInternal_v0_24__pxrReserved__19HdDataSourceLocator6AppendERKNS_7TfTokenE(ptr dead_on_unwind writable sret(%"class.pxrInternal_v0_24__pxrReserved__::HdDataSourceLocator") align 8 @_ZZN32pxrInternal_v0_24__pxrReserved__20HdSceneGlobalsSchema21GetEndTimeCodeLocatorEvE7locator, ptr noundef nonnull align 8 dereferenceable(56) %9, ptr noundef nonnull align 8 dereferenceable(8) %13)
          to label %14 unwind label %17

14:                                               ; preds = %12
  %15 = call i32 @__cxa_atexit(ptr @_ZN32pxrInternal_v0_24__pxrReserved__19HdDataSourceLocatorD2Ev, ptr @_ZZN32pxrInternal_v0_24__pxrReserved__20HdSceneGlobalsSchema21GetEndTimeCodeLocatorEvE7locator, ptr @__dso_handle) #3
  call void @__cxa_guard_release(ptr @_ZGVZN32pxrInternal_v0_24__pxrReserved__20HdSceneGlobalsSchema21GetEndTimeCodeLocatorEvE7locator) #3
  br label %16

16:                                               ; preds = %14, %5, %0
  ret ptr @_ZZN32pxrInternal_v0_24__pxrReserved__20HdSceneGlobalsSchema21GetEndTimeCodeLocatorEvE7locator

17:                                               ; preds = %12, %10, %8
  %18 = landingpad { ptr, i32 }
          cleanup
  %19 = extractvalue { ptr, i32 } %18, 0
  store ptr %19, ptr %1, align 8
  %20 = extractvalue { ptr, i32 } %18, 1
  store i32 %20, ptr %2, align 4
  call void @__cxa_guard_abort(ptr @_ZGVZN32pxrInternal_v0_24__pxrReserved__20HdSceneGlobalsSchema21GetEndTimeCodeLocatorEvE7locator) #3
  br label %21

21:                                               ; preds = %17
  %22 = load ptr, ptr %1, align 8
  %23 = load i32, ptr %2, align 4
  %24 = insertvalue { ptr, i32 } poison, ptr %22, 0
  %25 = insertvalue { ptr, i32 } %24, i32 %23, 1
  resume { ptr, i32 } %25
}